target datalayout = "e-m:e-p270:32:32-p271:32:32-p272:64:64-i64:64-i128:128-f80:128-n8:16:32:64-S128"
target triple = "x86_64-pc-linux-gnu"

%struct.GtkRequisition = type { i32, i32 }
%struct.JNINativeInterface_ = type { ptr, ptr, ptr, ptr, ptr, ptr, ptr, ptr, ptr, ptr, ptr, ptr, ptr, ptr, ptr, ptr, ptr, ptr, ptr, ptr, ptr, ptr, ptr, ptr, ptr, ptr, ptr, ptr, ptr, ptr, ptr, ptr, ptr, ptr, ptr, ptr, ptr, ptr, ptr, ptr, ptr, ptr, ptr, ptr, ptr, ptr, ptr, ptr, ptr, ptr, ptr, ptr, ptr, ptr, ptr, ptr, ptr, ptr, ptr, ptr, ptr, ptr, ptr, ptr, ptr, ptr, ptr, ptr, ptr, ptr, ptr, ptr, ptr, ptr, ptr, ptr, ptr, ptr, ptr, ptr, ptr, ptr, ptr, ptr, ptr, ptr, ptr, ptr, ptr, ptr, ptr, ptr, ptr, ptr, ptr, ptr, ptr, ptr, ptr, ptr, ptr, ptr, ptr, ptr, ptr, ptr, ptr, ptr, ptr, ptr, ptr, ptr, ptr, ptr, ptr, ptr, ptr, ptr, ptr, ptr, ptr, ptr, ptr, ptr, ptr, ptr, ptr, ptr, ptr, ptr, ptr, ptr, ptr, ptr, ptr, ptr, ptr, ptr, ptr, ptr, ptr, ptr, ptr, ptr, ptr, ptr, ptr, ptr, ptr, ptr, ptr, ptr, ptr, ptr, ptr, ptr, ptr, ptr, ptr, ptr, ptr, ptr, ptr, ptr, ptr, ptr, ptr, ptr, ptr, ptr, ptr, ptr, ptr, ptr, ptr, ptr, ptr, ptr, ptr, ptr, ptr, ptr, ptr, ptr, ptr, ptr, ptr, ptr, ptr, ptr, ptr, ptr, ptr, ptr, ptr, ptr, ptr, ptr, ptr, ptr, ptr, ptr, ptr, ptr, ptr, ptr, ptr, ptr, ptr, ptr, ptr, ptr, ptr, ptr, ptr, ptr, ptr, ptr, ptr, ptr, ptr, ptr, ptr, ptr, ptr, ptr, ptr, ptr, ptr, ptr, ptr, ptr, ptr, ptr, ptr }
%struct._GtkWidget = type { %struct.GtkObject, i16, i8, i8, ptr, ptr, %struct.GtkRequisition, %struct.GtkAllocation, ptr, ptr }
%struct.GtkObject = type { %struct.GObject, i32 }
%struct.GObject = type { %struct.GTypeInstance, i32, ptr }
%struct.GTypeInstance = type { ptr }
%struct.GtkAllocation = type { i32, i32, i32, i32 }

@fp_g_object_unref = internal global ptr null, align 8
@fp_gdk_pixmap_new = internal global ptr null, align 8
@fp_gdk_gc_new = internal global ptr null, align 8
@fp_gdk_rgb_gc_set_foreground = internal global ptr null, align 8
@fp_gdk_draw_rectangle = internal global ptr null, align 8
@fp_gdk_pixbuf_new = internal global ptr null, align 8
@fp_gtk_fixed_new = internal global ptr null, align 8
@fp_gtk_window_new = internal global ptr null, align 8
@fp_gtk_container_add = internal global ptr null, align 8
@fp_gtk_widget_realize = internal global ptr null, align 8
@fp_gdk_threads_leave = internal global ptr null, align 8
@gtk2_white_pixmap = internal global ptr null, align 8
@gtk2_black_pixmap = internal global ptr null, align 8
@gtk2_white_pixbuf = internal global ptr null, align 8
@gtk2_black_pixbuf = internal global ptr null, align 8
@gtk2_pixbuf_width = internal global i32 0, align 4
@gtk2_pixbuf_height = internal global i32 0, align 4
@gtk2_window = internal global ptr null, align 8
@gtk2_fixed = internal global ptr null, align 8
@convertionBuffer = internal global [128 x i8] zeroinitializer, align 16
@.str.189 = private unnamed_addr constant [37 x i8] c"Couldn't create pixbuf of size %dx%d\00", align 1
@.str.190 = private unnamed_addr constant [27 x i8] c"java/lang/RuntimeException\00", align 1

; Function Attrs: nounwind uwtable
define internal void @throw_exception(ptr noundef %0, ptr noundef %1, ptr noundef %2) #0 {
  %4 = alloca ptr, align 8
  %5 = alloca ptr, align 8
  %6 = alloca ptr, align 8
  %7 = alloca ptr, align 8
  store ptr %0, ptr %4, align 8
  store ptr %1, ptr %5, align 8
  store ptr %2, ptr %6, align 8
  %8 = load ptr, ptr %4, align 8
  %9 = load ptr, ptr %8, align 8
  %10 = getelementptr inbounds %struct.JNINativeInterface_, ptr %9, i32 0, i32 6
  %11 = load ptr, ptr %10, align 8
  %12 = load ptr, ptr %4, align 8
  %13 = load ptr, ptr %5, align 8
  %14 = call ptr %11(ptr noundef %12, ptr noundef %13)
  store ptr %14, ptr %7, align 8
  %15 = load ptr, ptr %7, align 8
  %16 = icmp ne ptr %15, null
  br i1 %16, label %17, label %26

17:                                               ; preds = %3
  %18 = load ptr, ptr %4, align 8
  %19 = load ptr, ptr %18, align 8
  %20 = getelementptr inbounds %struct.JNINativeInterface_, ptr %19, i32 0, i32 14
  %21 = load ptr, ptr %20, align 8
  %22 = load ptr, ptr %4, align 8
  %23 = load ptr, ptr %7, align 8
  %24 = load ptr, ptr %6, align 8
  %25 = call i32 %21(ptr noundef %22, ptr noundef %23, ptr noundef %24)
  br label %26

26:                                               ; preds = %17, %3
  %27 = load ptr, ptr %4, align 8
  %28 = load ptr, ptr %27, align 8
  %29 = getelementptr inbounds %struct.JNINativeInterface_, ptr %28, i32 0, i32 23
  %30 = load ptr, ptr %29, align 8
  %31 = load ptr, ptr %4, align 8
  %32 = load ptr, ptr %7, align 8
  call void %30(ptr noundef %31, ptr noundef %32)
  ret void
}

; Function Attrs: nounwind uwtable
define internal void @init_containers() #0 {
  %1 = load ptr, ptr @gtk2_window, align 8
  %2 = icmp eq ptr %1, null
  br i1 %2, label %3, label %15

3:                                                ; preds = %0
  %4 = load ptr, ptr @fp_gtk_window_new, align 8
  %5 = call ptr %4(i32 noundef 0)
  store ptr %5, ptr @gtk2_window, align 8
  %6 = load ptr, ptr @fp_gtk_fixed_new, align 8
  %7 = call ptr (...) %6()
  store ptr %7, ptr @gtk2_fixed, align 8
  %8 = load ptr, ptr @fp_gtk_container_add, align 8
  %9 = load ptr, ptr @gtk2_window, align 8
  %10 = load ptr, ptr @gtk2_fixed, align 8
  call void %8(ptr noundef %9, ptr noundef %10)
  %11 = load ptr, ptr @fp_gtk_widget_realize, align 8
  %12 = load ptr, ptr @gtk2_window, align 8
  call void %11(ptr noundef %12)
  %13 = load ptr, ptr @fp_gtk_widget_realize, align 8
  %14 = load ptr, ptr @gtk2_fixed, align 8
  call void %13(ptr noundef %14)
  br label %15

15:                                               ; preds = %3, %0
  ret void
}

; Function Attrs: nounwind uwtable
define internal void @gtk2_init_painting(ptr noundef %0, i32 noundef %1, i32 noundef %2) #0 {
  %4 = alloca ptr, align 8
  %5 = alloca i32, align 4
  %6 = alloca i32, align 4
  %7 = alloca ptr, align 8
  %8 = alloca ptr, align 8
  %9 = alloca ptr, align 8
  store ptr %0, ptr %4, align 8
  store i32 %1, ptr %5, align 4
  store i32 %2, ptr %6, align 4
  call void @init_containers()
  %10 = load i32, ptr @gtk2_pixbuf_width, align 4
  %11 = load i32, ptr %5, align 4
  %12 = icmp slt i32 %10, %11
  br i1 %12, label %17, label %13

13:                                               ; preds = %3
  %14 = load i32, ptr @gtk2_pixbuf_height, align 4
  %15 = load i32, ptr %6, align 4
  %16 = icmp slt i32 %14, %15
  br i1 %16, label %17, label %68

17:                                               ; preds = %13, %3
  %18 = load ptr, ptr @fp_gdk_pixbuf_new, align 8
  %19 = load i32, ptr %5, align 4
  %20 = load i32, ptr %6, align 4
  %21 = call ptr %18(i32 noundef 0, i32 noundef 1, i32 noundef 8, i32 noundef %19, i32 noundef %20)
  store ptr %21, ptr %8, align 8
  %22 = load ptr, ptr @fp_gdk_pixbuf_new, align 8
  %23 = load i32, ptr %5, align 4
  %24 = load i32, ptr %6, align 4
  %25 = call ptr %22(i32 noundef 0, i32 noundef 1, i32 noundef 8, i32 noundef %23, i32 noundef %24)
  store ptr %25, ptr %9, align 8
  %26 = load ptr, ptr %8, align 8
  %27 = icmp eq ptr %26, null
  br i1 %27, label %31, label %28

28:                                               ; preds = %17
  %29 = load ptr, ptr %9, align 8
  %30 = icmp eq ptr %29, null
  br i1 %30, label %31, label %37

31:                                               ; preds = %28, %17
  %32 = load i32, ptr %5, align 4
  %33 = load i32, ptr %6, align 4
  %34 = call i32 (ptr, i64, ptr, ...) @snprintf(ptr noundef @convertionBuffer, i64 noundef 128, ptr noundef @.str.189, i32 noundef %32, i32 noundef %33) #7
  %35 = load ptr, ptr %4, align 8
  call void @throw_exception(ptr noundef %35, ptr noundef @.str.190, ptr noundef @convertionBuffer)
  %36 = load ptr, ptr @fp_gdk_threads_leave, align 8
  call void %36()
  br label %93

37:                                               ; preds = %28
  %38 = load ptr, ptr @gtk2_white_pixmap, align 8
  %39 = icmp ne ptr %38, null
  br i1 %39, label %40, label %49

40:                                               ; preds = %37
  %41 = load ptr, ptr @fp_g_object_unref, align 8
  %42 = load ptr, ptr @gtk2_white_pixmap, align 8
  call void %41(ptr noundef %42)
  %43 = load ptr, ptr @fp_g_object_unref, align 8
  %44 = load ptr, ptr @gtk2_black_pixmap, align 8
  call void %43(ptr noundef %44)
  %45 = load ptr, ptr @fp_g_object_unref, align 8
  %46 = load ptr, ptr @gtk2_white_pixbuf, align 8
  call void %45(ptr noundef %46)
  %47 = load ptr, ptr @fp_g_object_unref, align 8
  %48 = load ptr, ptr @gtk2_black_pixbuf, align 8
  call void %47(ptr noundef %48)
  br label %49

49:                                               ; preds = %40, %37
  %50 = load ptr, ptr @fp_gdk_pixmap_new, align 8
  %51 = load ptr, ptr @gtk2_window, align 8
  %52 = getelementptr inbounds %struct._GtkWidget, ptr %51, i32 0, i32 8
  %53 = load ptr, ptr %52, align 8
  %54 = load i32, ptr %5, align 4
  %55 = load i32, ptr %6, align 4
  %56 = call ptr %50(ptr noundef %53, i32 noundef %54, i32 noundef %55, i32 noundef -1)
  store ptr %56, ptr @gtk2_white_pixmap, align 8
  %57 = load ptr, ptr @fp_gdk_pixmap_new, align 8
  %58 = load ptr, ptr @gtk2_window, align 8
  %59 = getelementptr inbounds %struct._GtkWidget, ptr %58, i32 0, i32 8
  %60 = load ptr, ptr %59, align 8
  %61 = load i32, ptr %5, align 4
  %62 = load i32, ptr %6, align 4
  %63 = call ptr %57(ptr noundef %60, i32 noundef %61, i32 noundef %62, i32 noundef -1)
  store ptr %63, ptr @gtk2_black_pixmap, align 8
  %64 = load ptr, ptr %8, align 8
  store ptr %64, ptr @gtk2_white_pixbuf, align 8
  %65 = load ptr, ptr %9, align 8
  store ptr %65, ptr @gtk2_black_pixbuf, align 8
  %66 = load i32, ptr %5, align 4
  store i32 %66, ptr @gtk2_pixbuf_width, align 4
  %67 = load i32, ptr %6, align 4
  store i32 %67, ptr @gtk2_pixbuf_height, align 4
  br label %68

68:                                               ; preds = %49, %13
  %69 = load ptr, ptr @fp_gdk_gc_new, align 8
  %70 = load ptr, ptr @gtk2_white_pixmap, align 8
  %71 = call ptr %69(ptr noundef %70)
  store ptr %71, ptr %7, align 8
  %72 = load ptr, ptr @fp_gdk_rgb_gc_set_foreground, align 8
  %73 = load ptr, ptr %7, align 8
  call void %72(ptr noundef %73, i32 noundef 16777215)
  %74 = load ptr, ptr @fp_gdk_draw_rectangle, align 8
  %75 = load ptr, ptr @gtk2_white_pixmap, align 8
  %76 = load ptr, ptr %7, align 8
  %77 = load i32, ptr %5, align 4
  %78 = load i32, ptr %6, align 4
  call void %74(ptr noundef %75, ptr noundef %76, i32 noundef 1, i32 noundef 0, i32 noundef 0, i32 noundef %77, i32 noundef %78)
  %79 = load ptr, ptr @fp_g_object_unref, align 8
  %80 = load ptr, ptr %7, align 8
  call void %79(ptr noundef %80)
  %81 = load ptr, ptr @fp_gdk_gc_new, align 8
  %82 = load ptr, ptr @gtk2_black_pixmap, align 8
  %83 = call ptr %81(ptr noundef %82)
  store ptr %83, ptr %7, align 8
  %84 = load ptr, ptr @fp_gdk_rgb_gc_set_foreground, align 8
  %85 = load ptr, ptr %7, align 8
  call void %84(ptr noundef %85, i32 noundef 0)
  %86 = load ptr, ptr @fp_gdk_draw_rectangle, align 8
  %87 = load ptr, ptr @gtk2_black_pixmap, align 8
  %88 = load ptr, ptr %7, align 8
  %89 = load i32, ptr %5, align 4
  %90 = load i32, ptr %6, align 4
  call void %86(ptr noundef %87, ptr noundef %88, i32 noundef 1, i32 noundef 0, i32 noundef 0, i32 noundef %89, i32 noundef %90)
  %91 = load ptr, ptr @fp_g_object_unref, align 8
  %92 = load ptr, ptr %7, align 8
  call void %91(ptr noundef %92)
  br label %93

93:                                               ; preds = %68, %31
  ret void
}