; Function Attrs: nounwind uwtable
define internal void @gtk2_init_painting(ptr noundef %0, i32 noundef %1, i32 noundef %2) #0 {
  %4 = load ptr, ptr @gtk2_window, align 8
  %5 = icmp eq ptr %4, null
  br i1 %5, label %6, label %init_containers.exit

6:                                                ; preds = %3
  %7 = load ptr, ptr @fp_gtk_window_new, align 8
  %8 = tail call ptr %7(i32 noundef 0) #18
  store ptr %8, ptr @gtk2_window, align 8
  %9 = load ptr, ptr @fp_gtk_fixed_new, align 8
  %10 = tail call ptr (...) %9() #18
  store ptr %10, ptr @gtk2_fixed, align 8
  %11 = load ptr, ptr @fp_gtk_container_add, align 8
  %12 = load ptr, ptr @gtk2_window, align 8
  tail call void %11(ptr noundef %12, ptr noundef %10) #18
  %13 = load ptr, ptr @fp_gtk_widget_realize, align 8
  %14 = load ptr, ptr @gtk2_window, align 8
  tail call void %13(ptr noundef %14) #18
  %15 = load ptr, ptr @fp_gtk_widget_realize, align 8
  %16 = load ptr, ptr @gtk2_fixed, align 8
  tail call void %15(ptr noundef %16) #18
  br label %init_containers.exit

init_containers.exit:                             ; preds = %3, %6
  %17 = load i32, ptr @gtk2_pixbuf_width, align 4
  %18 = icmp slt i32 %17, %1
  %19 = load i32, ptr @gtk2_pixbuf_height, align 4
  %20 = icmp slt i32 %19, %2
  %or.cond32 = select i1 %18, i1 true, i1 %20
  br i1 %or.cond32, label %21, label %64

21:                                               ; preds = %init_containers.exit
  %22 = load ptr, ptr @fp_gdk_pixbuf_new, align 8
  %23 = tail call ptr %22(i32 noundef 0, i32 noundef 1, i32 noundef 8, i32 noundef %1, i32 noundef %2) #18
  %24 = load ptr, ptr @fp_gdk_pixbuf_new, align 8
  %25 = tail call ptr %24(i32 noundef 0, i32 noundef 1, i32 noundef 8, i32 noundef %1, i32 noundef %2) #18
  %26 = icmp eq ptr %23, null
  %27 = icmp eq ptr %25, null
  %or.cond = select i1 %26, i1 true, i1 %27
  br i1 %or.cond, label %28, label %43

28:                                               ; preds = %21
  %29 = tail call i32 (ptr, i64, ptr, ...) @snprintf(ptr noundef nonnull dereferenceable(1) @convertionBuffer, i64 noundef 128, ptr noundef nonnull @.str.189, i32 noundef %1, i32 noundef %2) #18
  %30 = load ptr, ptr %0, align 8
  %31 = getelementptr inbounds i8, ptr %30, i64 48
  %32 = load ptr, ptr %31, align 8
  %33 = tail call ptr %32(ptr noundef nonnull %0, ptr noundef nonnull @.str.190) #18
  %.not.i = icmp eq ptr %33, null
  br i1 %.not.i, label %throw_exception.exit, label %34

34:                                               ; preds = %28
  %35 = load ptr, ptr %0, align 8
  %36 = getelementptr inbounds i8, ptr %35, i64 112
  %37 = load ptr, ptr %36, align 8
  %38 = tail call i32 %37(ptr noundef nonnull %0, ptr noundef nonnull %33, ptr noundef nonnull @convertionBuffer) #18
  br label %throw_exception.exit

throw_exception.exit:                             ; preds = %28, %34
  %39 = load ptr, ptr %0, align 8
  %40 = getelementptr inbounds i8, ptr %39, i64 184
  %41 = load ptr, ptr %40, align 8
  tail call void %41(ptr noundef nonnull %0, ptr noundef %33) #18
  %42 = load ptr, ptr @fp_gdk_threads_leave, align 8
  tail call void %42() #18
  br label %79

43:                                               ; preds = %21
  %44 = load ptr, ptr @gtk2_white_pixmap, align 8
  %.not = icmp eq ptr %44, null
  br i1 %.not, label %53, label %45

45:                                               ; preds = %43
  %46 = load ptr, ptr @fp_g_object_unref, align 8
  tail call void %46(ptr noundef nonnull %44) #18
  %47 = load ptr, ptr @fp_g_object_unref, align 8
  %48 = load ptr, ptr @gtk2_black_pixmap, align 8
  tail call void %47(ptr noundef %48) #18
  %49 = load ptr, ptr @fp_g_object_unref, align 8
  %50 = load ptr, ptr @gtk2_white_pixbuf, align 8
  tail call void %49(ptr noundef %50) #18
  %51 = load ptr, ptr @fp_g_object_unref, align 8
  %52 = load ptr, ptr @gtk2_black_pixbuf, align 8
  tail call void %51(ptr noundef %52) #18
  br label %53

53:                                               ; preds = %45, %43
  %54 = load ptr, ptr @fp_gdk_pixmap_new, align 8
  %55 = load ptr, ptr @gtk2_window, align 8
  %56 = getelementptr inbounds i8, ptr %55, i64 80
  %57 = load ptr, ptr %56, align 8
  %58 = tail call ptr %54(ptr noundef %57, i32 noundef %1, i32 noundef %2, i32 noundef -1) #18
  store ptr %58, ptr @gtk2_white_pixmap, align 8
  %59 = load ptr, ptr @fp_gdk_pixmap_new, align 8
  %60 = load ptr, ptr @gtk2_window, align 8
  %61 = getelementptr inbounds i8, ptr %60, i64 80
  %62 = load ptr, ptr %61, align 8
  %63 = tail call ptr %59(ptr noundef %62, i32 noundef %1, i32 noundef %2, i32 noundef -1) #18
  store ptr %63, ptr @gtk2_black_pixmap, align 8
  store ptr %23, ptr @gtk2_white_pixbuf, align 8
  store ptr %25, ptr @gtk2_black_pixbuf, align 8
  store i32 %1, ptr @gtk2_pixbuf_width, align 4
  store i32 %2, ptr @gtk2_pixbuf_height, align 4
  br label %64

64:                                               ; preds = %init_containers.exit, %53
  %65 = load ptr, ptr @fp_gdk_gc_new, align 8
  %66 = load ptr, ptr @gtk2_white_pixmap, align 8
  %67 = tail call ptr %65(ptr noundef %66) #18
  %68 = load ptr, ptr @fp_gdk_rgb_gc_set_foreground, align 8
  tail call void %68(ptr noundef %67, i32 noundef 16777215) #18
  %69 = load ptr, ptr @fp_gdk_draw_rectangle, align 8
  %70 = load ptr, ptr @gtk2_white_pixmap, align 8
  tail call void %69(ptr noundef %70, ptr noundef %67, i32 noundef 1, i32 noundef 0, i32 noundef 0, i32 noundef %1, i32 noundef %2) #18
  %71 = load ptr, ptr @fp_g_object_unref, align 8
  tail call void %71(ptr noundef %67) #18
  %72 = load ptr, ptr @fp_gdk_gc_new, align 8
  %73 = load ptr, ptr @gtk2_black_pixmap, align 8
  %74 = tail call ptr %72(ptr noundef %73) #18
  %75 = load ptr, ptr @fp_gdk_rgb_gc_set_foreground, align 8
  tail call void %75(ptr noundef %74, i32 noundef 0) #18
  %76 = load ptr, ptr @fp_gdk_draw_rectangle, align 8
  %77 = load ptr, ptr @gtk2_black_pixmap, align 8
  tail call void %76(ptr noundef %77, ptr noundef %74, i32 noundef 1, i32 noundef 0, i32 noundef 0, i32 noundef %1, i32 noundef %2) #18
  %78 = load ptr, ptr @fp_g_object_unref, align 8
  tail call void %78(ptr noundef %74) #18
  br label %79

79:                                               ; preds = %64, %throw_exception.exit
  ret void
}